target datalayout = "e-m:e-p270:32:32-p271:32:32-p272:64:64-i64:64-i128:128-f80:128-n8:16:32:64-S128"
target triple = "x86_64-pc-linux-gnu"

; Function Attrs: inlinehint nounwind uwtable
define internal void @Py_DECREF(ptr noundef %0) #3 {
  %2 = alloca ptr, align 8
  store ptr %0, ptr %2, align 8, !tbaa !4
  %3 = load ptr, ptr %2, align 8, !tbaa !4
  call void @_Py_DecRef(ptr noundef %3)
  ret void
}

; Function Attrs: nounwind uwtable
define internal i32 @_add_errcode(ptr noundef %0, ptr noundef %1, ptr noundef %2, i32 noundef %3) #0 {
  %5 = alloca i32, align 4
  %6 = alloca ptr, align 8
  %7 = alloca ptr, align 8
  %8 = alloca ptr, align 8
  %9 = alloca i32, align 4
  %10 = alloca ptr, align 8
  %11 = alloca i32, align 4
  %12 = alloca ptr, align 8
  %13 = alloca i32, align 4
  store ptr %0, ptr %6, align 8, !tbaa !4
  store ptr %1, ptr %7, align 8, !tbaa !4
  store ptr %2, ptr %8, align 8, !tbaa !9
  store i32 %3, ptr %9, align 4, !tbaa !11
  call void @llvm.lifetime.start.p0(i64 8, ptr %10) #4
  %14 = load ptr, ptr %8, align 8, !tbaa !9
  %15 = call ptr @PyUnicode_FromString(ptr noundef %14)
  store ptr %15, ptr %10, align 8, !tbaa !4
  %16 = load ptr, ptr %10, align 8, !tbaa !4
  %17 = icmp ne ptr %16, null
  br i1 %17, label %19, label %18

18:                                               ; preds = %4
  store i32 -1, ptr %5, align 4
  store i32 1, ptr %11, align 4
  br label %47

19:                                               ; preds = %4
  call void @llvm.lifetime.start.p0(i64 8, ptr %12) #4
  %20 = load i32, ptr %9, align 4, !tbaa !11
  %21 = sext i32 %20 to i64
  %22 = call ptr @PyLong_FromLong(i64 noundef %21)
  store ptr %22, ptr %12, align 8, !tbaa !4
  %23 = load ptr, ptr %12, align 8, !tbaa !4
  %24 = icmp ne ptr %23, null
  br i1 %24, label %27, label %25

25:                                               ; preds = %19
  %26 = load ptr, ptr %10, align 8, !tbaa !4
  call void @Py_DECREF(ptr noundef %26)
  store i32 -1, ptr %5, align 4
  store i32 1, ptr %11, align 4
  br label %46

27:                                               ; preds = %19
  call void @llvm.lifetime.start.p0(i64 4, ptr %13) #4
  store i32 -1, ptr %13, align 4, !tbaa !11
  %28 = load ptr, ptr %6, align 8, !tbaa !4
  %29 = load ptr, ptr %10, align 8, !tbaa !4
  %30 = load ptr, ptr %12, align 8, !tbaa !4
  %31 = call i32 @PyDict_SetItem(ptr noundef %28, ptr noundef %29, ptr noundef %30)
  %32 = icmp slt i32 %31, 0
  br i1 %32, label %33, label %34

33:                                               ; preds = %27
  br label %42

34:                                               ; preds = %27
  %35 = load ptr, ptr %7, align 8, !tbaa !4
  %36 = load ptr, ptr %12, align 8, !tbaa !4
  %37 = load ptr, ptr %10, align 8, !tbaa !4
  %38 = call i32 @PyDict_SetItem(ptr noundef %35, ptr noundef %36, ptr noundef %37)
  %39 = icmp slt i32 %38, 0
  br i1 %39, label %40, label %41

40:                                               ; preds = %34
  br label %42

41:                                               ; preds = %34
  store i32 0, ptr %13, align 4, !tbaa !11
  br label %42

42:                                               ; preds = %41, %40, %33
  %43 = load ptr, ptr %10, align 8, !tbaa !4
  call void @Py_DECREF(ptr noundef %43)
  %44 = load ptr, ptr %12, align 8, !tbaa !4
  call void @Py_DECREF(ptr noundef %44)
  %45 = load i32, ptr %13, align 4, !tbaa !11
  store i32 %45, ptr %5, align 4
  store i32 1, ptr %11, align 4
  call void @llvm.lifetime.end.p0(i64 4, ptr %13) #4
  br label %46

46:                                               ; preds = %42, %25
  call void @llvm.lifetime.end.p0(i64 8, ptr %12) #4
  br label %47

47:                                               ; preds = %46, %18
  call void @llvm.lifetime.end.p0(i64 8, ptr %10) #4
  %48 = load i32, ptr %5, align 4
  ret i32 %48
}