; Function Attrs: nounwind uwtable
define internal fastcc range(i32 -1, 1) i32 @_add_errcode(ptr noundef nonnull %0, ptr noundef nonnull %1, ptr noundef %2, i32 noundef %3) unnamed_addr #0 {
  %5 = tail call ptr @PyUnicode_FromString(ptr noundef %2) #2
  %.not = icmp eq ptr %5, null
  br i1 %.not, label %15, label %6

6:                                                ; preds = %4
  %7 = sext i32 %3 to i64
  %8 = tail call ptr @PyLong_FromLong(i64 noundef %7) #2
  %.not17 = icmp eq ptr %8, null
  br i1 %.not17, label %.sink.split, label %9

9:                                                ; preds = %6
  %10 = tail call i32 @PyDict_SetItem(ptr noundef nonnull %0, ptr noundef nonnull %5, ptr noundef nonnull %8) #2
  %11 = icmp slt i32 %10, 0
  br i1 %11, label %14, label %12

12:                                               ; preds = %9
  %13 = tail call i32 @PyDict_SetItem(ptr noundef nonnull %1, ptr noundef nonnull %8, ptr noundef nonnull %5) #2
  %.lobit = ashr i32 %13, 31
  br label %14

14:                                               ; preds = %12, %9
  %.0 = phi i32 [ -1, %9 ], [ %.lobit, %12 ]
  tail call void @_Py_DecRef(ptr noundef nonnull %5) #2
  br label %.sink.split

.sink.split:                                      ; preds = %6, %14
  %.sink = phi ptr [ %8, %14 ], [ %5, %6 ]
  %.014.ph = phi i32 [ %.0, %14 ], [ -1, %6 ]
  tail call void @_Py_DecRef(ptr noundef nonnull %.sink) #2
  br label %15

15:                                               ; preds = %.sink.split, %4
  %.014 = phi i32 [ -1, %4 ], [ %.014.ph, %.sink.split ]
  ret i32 %.014
}